; Function Attrs: mustprogress uwtable
define noundef nonnull align 8 dereferenceable(72) ptr @_ZN7Iex_3_47BaseExc6appendEPKc(ptr noundef nonnull returned align 8 dereferenceable(72) %0, ptr noundef %1) local_unnamed_addr #2 align 2 {
  %3 = tail call noundef i64 @strlen(ptr noundef nonnull dereferenceable(1) %1) #21
  %4 = getelementptr inbounds nuw i8, ptr %0, i64 16
  %5 = load i64, ptr %4, align 8, !tbaa !17
  %6 = sub i64 4611686018427387903, %5
  %7 = icmp ult i64 %6, %3
  br i1 %7, label %8, label %_ZNSt7__cxx1112basic_stringIcSt11char_traitsIcESaIcEE6appendEPKc.exit

8:                                                ; preds = %2
  tail call void @_ZSt20__throw_length_errorPKc(ptr noundef nonnull @.str.2) #23
  unreachable

_ZNSt7__cxx1112basic_stringIcSt11char_traitsIcESaIcEE6appendEPKc.exit: ; preds = %2
  %9 = getelementptr inbounds nuw i8, ptr %0, i64 8
  %10 = tail call noundef nonnull align 8 dereferenceable(32) ptr @_ZNSt7__cxx1112basic_stringIcSt11char_traitsIcESaIcEE9_M_appendEPKcm(ptr noundef nonnull align 8 dereferenceable(32) %9, ptr noundef nonnull %1, i64 noundef %3)
  ret ptr %0
}